target datalayout = "e-m:e-p270:32:32-p271:32:32-p272:64:64-i64:64-i128:128-f80:128-n8:16:32:64-S128"
target triple = "x86_64-pc-linux-gnu"

%"class.glslang::HlslGrammar" = type { %"class.glslang::HlslTokenStream.base", ptr, ptr, i8, ptr }
%"class.glslang::HlslTokenStream.base" = type <{ ptr, %"struct.glslang::HlslToken", ptr, %"class.glslang::TVector", %"class.glslang::TVector.0", %"class.glslang::TVector.4", [2 x %"struct.glslang::HlslToken"], i32, [4 x i8], [2 x %"struct.glslang::HlslToken"], i32 }>
%"struct.glslang::HlslToken" = type { %"struct.glslang::TSourceLoc", i32, %union.anon }
%"struct.glslang::TSourceLoc" = type { ptr, i32, i32, i32 }
%union.anon = type { ptr }
%"class.glslang::TVector" = type { %"class.std::vector" }
%"class.std::vector" = type { %"struct.std::_Vector_base" }
%"struct.std::_Vector_base" = type { %"struct.std::_Vector_base<const glslang::TVector<glslang::HlslToken> *, glslang::pool_allocator<const glslang::TVector<glslang::HlslToken> *>>::_Vector_impl" }
%"struct.std::_Vector_base<const glslang::TVector<glslang::HlslToken> *, glslang::pool_allocator<const glslang::TVector<glslang::HlslToken> *>>::_Vector_impl" = type { %"class.glslang::pool_allocator", %"struct.std::_Vector_base<const glslang::TVector<glslang::HlslToken> *, glslang::pool_allocator<const glslang::TVector<glslang::HlslToken> *>>::_Vector_impl_data" }
%"class.glslang::pool_allocator" = type { ptr }
%"struct.std::_Vector_base<const glslang::TVector<glslang::HlslToken> *, glslang::pool_allocator<const glslang::TVector<glslang::HlslToken> *>>::_Vector_impl_data" = type { ptr, ptr, ptr }
%"class.glslang::TVector.0" = type { %"class.std::vector.1" }
%"class.std::vector.1" = type { %"struct.std::_Vector_base.2" }
%"struct.std::_Vector_base.2" = type { %"struct.std::_Vector_base<int, glslang::pool_allocator<int>>::_Vector_impl" }
%"struct.std::_Vector_base<int, glslang::pool_allocator<int>>::_Vector_impl" = type { %"class.glslang::pool_allocator.3", %"struct.std::_Vector_base<int, glslang::pool_allocator<int>>::_Vector_impl_data" }
%"class.glslang::pool_allocator.3" = type { ptr }
%"struct.std::_Vector_base<int, glslang::pool_allocator<int>>::_Vector_impl_data" = type { ptr, ptr, ptr }
%"class.glslang::TVector.4" = type { %"class.std::vector.5" }
%"class.std::vector.5" = type { %"struct.std::_Vector_base.6" }
%"struct.std::_Vector_base.6" = type { %"struct.std::_Vector_base<glslang::HlslToken, glslang::pool_allocator<glslang::HlslToken>>::_Vector_impl" }
%"struct.std::_Vector_base<glslang::HlslToken, glslang::pool_allocator<glslang::HlslToken>>::_Vector_impl" = type { %"class.glslang::pool_allocator.7", %"struct.std::_Vector_base<glslang::HlslToken, glslang::pool_allocator<glslang::HlslToken>>::_Vector_impl_data" }
%"class.glslang::pool_allocator.7" = type { ptr }
%"struct.std::_Vector_base<glslang::HlslToken, glslang::pool_allocator<glslang::HlslToken>>::_Vector_impl_data" = type { ptr, ptr, ptr }
%"class.glslang::HlslTokenStream" = type <{ ptr, %"struct.glslang::HlslToken", ptr, %"class.glslang::TVector", %"class.glslang::TVector.0", %"class.glslang::TVector.4", [2 x %"struct.glslang::HlslToken"], i32, [4 x i8], [2 x %"struct.glslang::HlslToken"], i32, [4 x i8] }>

@.str = private unnamed_addr constant [9 x i8] c"Expected\00", align 1
@.str.1 = private unnamed_addr constant [1 x i8] zeroinitializer, align 1
@.str.42 = private unnamed_addr constant [11 x i8] c"expression\00", align 1
@.str.83 = private unnamed_addr constant [45 x i8] c"Could not perform requested binary operation\00", align 1

; Function Attrs: mustprogress nounwind uwtable
define void @_ZN7glslang11HlslGrammar8expectedEPKc(ptr noundef nonnull align 8 dereferenceable(360) %0, ptr noundef %1) #0 align 2 {
  %3 = alloca ptr, align 8
  %4 = alloca ptr, align 8
  store ptr %0, ptr %3, align 8
  store ptr %1, ptr %4, align 8
  %5 = load ptr, ptr %3, align 8
  %6 = getelementptr inbounds %"class.glslang::HlslGrammar", ptr %5, i32 0, i32 1
  %7 = load ptr, ptr %6, align 8
  %8 = getelementptr inbounds %"class.glslang::HlslTokenStream", ptr %5, i32 0, i32 1
  %9 = getelementptr inbounds %"struct.glslang::HlslToken", ptr %8, i32 0, i32 0
  %10 = load ptr, ptr %4, align 8
  %11 = load ptr, ptr %7, align 8
  %12 = getelementptr inbounds ptr, ptr %11, i64 43
  %13 = load ptr, ptr %12, align 8
  call void (ptr, ptr, ptr, ptr, ptr, ...) %13(ptr noundef nonnull align 8 dereferenceable(1280) %7, ptr noundef nonnull align 8 dereferenceable(24) %9, ptr noundef @.str, ptr noundef %10, ptr noundef @.str.1)
  ret void
}

; Function Attrs: mustprogress nounwind uwtable
define noundef zeroext i1 @_ZN7glslang11HlslGrammar22acceptBinaryExpressionERPNS_12TIntermTypedENS_15PrecedenceLevelE(ptr noundef nonnull align 8 dereferenceable(360) %0, ptr noundef nonnull align 8 dereferenceable(8) %1, i32 noundef %2) #0 align 2 {
  %4 = alloca i1, align 1
  %5 = alloca ptr, align 8
  %6 = alloca ptr, align 8
  %7 = alloca i32, align 4
  %8 = alloca i32, align 4
  %9 = alloca i32, align 4
  %10 = alloca %"struct.glslang::TSourceLoc", align 8
  %11 = alloca ptr, align 8
  store ptr %0, ptr %5, align 8
  store ptr %1, ptr %6, align 8
  store i32 %2, ptr %7, align 4
  %12 = load ptr, ptr %5, align 8
  %13 = load i32, ptr %7, align 4
  %14 = icmp sgt i32 %13, 11
  br i1 %14, label %15, label %18

15:                                               ; preds = %3
  %16 = load ptr, ptr %6, align 8
  %17 = call noundef zeroext i1 @_ZN7glslang11HlslGrammar21acceptUnaryExpressionERPNS_12TIntermTypedE(ptr noundef nonnull align 8 dereferenceable(360) %12, ptr noundef nonnull align 8 dereferenceable(8) %16)
  store i1 %17, ptr %4, align 1
  br label %62

18:                                               ; preds = %3
  %19 = load ptr, ptr %6, align 8
  %20 = load i32, ptr %7, align 4
  %21 = add nsw i32 %20, 1
  %22 = call noundef zeroext i1 @_ZN7glslang11HlslGrammar22acceptBinaryExpressionERPNS_12TIntermTypedENS_15PrecedenceLevelE(ptr noundef nonnull align 8 dereferenceable(360) %12, ptr noundef nonnull align 8 dereferenceable(8) %19, i32 noundef %21)
  br i1 %22, label %24, label %23

23:                                               ; preds = %18
  store i1 false, ptr %4, align 1
  br label %62

24:                                               ; preds = %18
  br label %25

25:                                               ; preds = %60, %24
  %26 = call noundef i32 @_ZNK7glslang15HlslTokenStream4peekEv(ptr noundef nonnull align 8 dereferenceable(324) %12)
  %27 = call noundef i32 @_ZN7glslang9HlslOpMap6binaryENS_15EHlslTokenClassE(i32 noundef %26)
  store i32 %27, ptr %8, align 4
  %28 = load i32, ptr %8, align 4
  %29 = call noundef i32 @_ZN7glslang9HlslOpMap15precedenceLevelENS_9TOperatorE(i32 noundef %28)
  store i32 %29, ptr %9, align 4
  %30 = load i32, ptr %9, align 4
  %31 = load i32, ptr %7, align 4
  %32 = icmp slt i32 %30, %31
  br i1 %32, label %33, label %34

33:                                               ; preds = %25
  store i1 true, ptr %4, align 1
  br label %62

34:                                               ; preds = %25
  %35 = getelementptr inbounds %"class.glslang::HlslTokenStream", ptr %12, i32 0, i32 1
  %36 = getelementptr inbounds %"struct.glslang::HlslToken", ptr %35, i32 0, i32 0
  call void @llvm.memcpy.p0.p0.i64(ptr align 8 %10, ptr align 8 %36, i64 24, i1 false)
  call void @_ZN7glslang15HlslTokenStream12advanceTokenEv(ptr noundef nonnull align 8 dereferenceable(324) %12)
  store ptr null, ptr %11, align 8
  %37 = load i32, ptr %7, align 4
  %38 = add nsw i32 %37, 1
  %39 = call noundef zeroext i1 @_ZN7glslang11HlslGrammar22acceptBinaryExpressionERPNS_12TIntermTypedENS_15PrecedenceLevelE(ptr noundef nonnull align 8 dereferenceable(360) %12, ptr noundef nonnull align 8 dereferenceable(8) %11, i32 noundef %38)
  br i1 %39, label %41, label %40

40:                                               ; preds = %34
  call void @_ZN7glslang11HlslGrammar8expectedEPKc(ptr noundef nonnull align 8 dereferenceable(360) %12, ptr noundef @.str.42)
  store i1 false, ptr %4, align 1
  br label %62

41:                                               ; preds = %34
  %42 = getelementptr inbounds %"class.glslang::HlslGrammar", ptr %12, i32 0, i32 2
  %43 = load ptr, ptr %42, align 8
  %44 = load i32, ptr %8, align 4
  %45 = load ptr, ptr %6, align 8
  %46 = load ptr, ptr %45, align 8
  %47 = load ptr, ptr %11, align 8
  %48 = call noundef ptr @_ZN7glslang13TIntermediate13addBinaryMathENS_9TOperatorEPNS_12TIntermTypedES3_RKNS_10TSourceLocE(ptr noundef nonnull align 8 dereferenceable(2024) %43, i32 noundef %44, ptr noundef %46, ptr noundef %47, ptr noundef nonnull align 8 dereferenceable(24) %10)
  %49 = load ptr, ptr %6, align 8
  store ptr %48, ptr %49, align 8
  %50 = load ptr, ptr %6, align 8
  %51 = load ptr, ptr %50, align 8
  %52 = icmp eq ptr %51, null
  br i1 %52, label %53, label %59

53:                                               ; preds = %41
  %54 = getelementptr inbounds %"class.glslang::HlslGrammar", ptr %12, i32 0, i32 1
  %55 = load ptr, ptr %54, align 8
  %56 = load ptr, ptr %55, align 8
  %57 = getelementptr inbounds ptr, ptr %56, i64 43
  %58 = load ptr, ptr %57, align 8
  call void (ptr, ptr, ptr, ptr, ptr, ...) %58(ptr noundef nonnull align 8 dereferenceable(1280) %55, ptr noundef nonnull align 8 dereferenceable(24) %10, ptr noundef @.str.83, ptr noundef @.str.1, ptr noundef @.str.1)
  store i1 false, ptr %4, align 1
  br label %62

59:                                               ; preds = %41
  br label %60

60:                                               ; preds = %59
  br i1 true, label %25, label %61, !llvm.loop !30

61:                                               ; preds = %60
  call void @llvm.trap()
  unreachable

62:                                               ; preds = %53, %40, %33, %23, %15
  %63 = load i1, ptr %4, align 1
  ret i1 %63
}