; Function Attrs: mustprogress nounwind uwtable
define noundef zeroext i1 @_ZN7glslang11HlslGrammar22acceptBinaryExpressionERPNS_12TIntermTypedENS_15PrecedenceLevelE(ptr noundef nonnull align 8 dereferenceable(360) %0, ptr noundef nonnull align 8 dereferenceable(8) %1, i32 noundef %2) local_unnamed_addr #0 align 2 {
  %4 = alloca %"struct.glslang::TSourceLoc", align 8
  %5 = alloca ptr, align 8
  %6 = icmp sgt i32 %2, 11
  br i1 %6, label %7, label %9

7:                                                ; preds = %3
  %8 = tail call noundef zeroext i1 @_ZN7glslang11HlslGrammar21acceptUnaryExpressionERPNS_12TIntermTypedE(ptr noundef nonnull align 8 dereferenceable(360) %0, ptr noundef nonnull align 8 dereferenceable(8) %1)
  br label %.loopexit

9:                                                ; preds = %3
  %10 = add nsw i32 %2, 1
  %11 = tail call noundef zeroext i1 @_ZN7glslang11HlslGrammar22acceptBinaryExpressionERPNS_12TIntermTypedENS_15PrecedenceLevelE(ptr noundef nonnull align 8 dereferenceable(360) %0, ptr noundef nonnull align 8 dereferenceable(8) %1, i32 noundef %10)
  br i1 %11, label %.preheader, label %.loopexit

.preheader:                                       ; preds = %9
  %12 = getelementptr inbounds i8, ptr %0, i64 8
  %13 = getelementptr inbounds i8, ptr %0, i64 336
  br label %14

14:                                               ; preds = %.preheader, %27
  %15 = call noundef i32 @_ZNK7glslang15HlslTokenStream4peekEv(ptr noundef nonnull align 8 dereferenceable(324) %0) #16
  %16 = call noundef i32 @_ZN7glslang9HlslOpMap6binaryENS_15EHlslTokenClassE(i32 noundef %15) #16
  %17 = call noundef i32 @_ZN7glslang9HlslOpMap15precedenceLevelENS_9TOperatorE(i32 noundef %16) #16
  %18 = icmp slt i32 %17, %2
  br i1 %18, label %.loopexit, label %19

19:                                               ; preds = %14
  call void @llvm.memcpy.p0.p0.i64(ptr noundef nonnull align 8 dereferenceable(24) %4, ptr noundef nonnull align 8 dereferenceable(24) %12, i64 24, i1 false)
  call void @_ZN7glslang15HlslTokenStream12advanceTokenEv(ptr noundef nonnull align 8 dereferenceable(324) %0) #16
  store ptr null, ptr %5, align 8
  %20 = call noundef zeroext i1 @_ZN7glslang11HlslGrammar22acceptBinaryExpressionERPNS_12TIntermTypedENS_15PrecedenceLevelE(ptr noundef nonnull align 8 dereferenceable(360) %0, ptr noundef nonnull align 8 dereferenceable(8) %5, i32 noundef %10)
  br i1 %20, label %27, label %21

21:                                               ; preds = %19
  %22 = getelementptr inbounds i8, ptr %0, i64 328
  %23 = load ptr, ptr %22, align 8
  %24 = load ptr, ptr %23, align 8
  %25 = getelementptr inbounds i8, ptr %24, i64 344
  %26 = load ptr, ptr %25, align 8
  call void (ptr, ptr, ptr, ptr, ptr, ...) %26(ptr noundef nonnull align 8 dereferenceable(1280) %23, ptr noundef nonnull align 8 dereferenceable(24) %12, ptr noundef nonnull @.str, ptr noundef nonnull @.str.42, ptr noundef nonnull @.str.1) #16
  br label %.loopexit

27:                                               ; preds = %19
  %28 = load ptr, ptr %13, align 8
  %29 = load ptr, ptr %1, align 8
  %30 = load ptr, ptr %5, align 8
  %31 = call noundef ptr @_ZN7glslang13TIntermediate13addBinaryMathENS_9TOperatorEPNS_12TIntermTypedES3_RKNS_10TSourceLocE(ptr noundef nonnull align 8 dereferenceable(2024) %28, i32 noundef %16, ptr noundef %29, ptr noundef %30, ptr noundef nonnull align 8 dereferenceable(24) %4) #16
  store ptr %31, ptr %1, align 8
  %32 = icmp eq ptr %31, null
  br i1 %32, label %33, label %14, !llvm.loop !60

33:                                               ; preds = %27
  %34 = getelementptr inbounds i8, ptr %0, i64 328
  %35 = load ptr, ptr %34, align 8
  %36 = load ptr, ptr %35, align 8
  %37 = getelementptr inbounds i8, ptr %36, i64 344
  %38 = load ptr, ptr %37, align 8
  call void (ptr, ptr, ptr, ptr, ptr, ...) %38(ptr noundef nonnull align 8 dereferenceable(1280) %35, ptr noundef nonnull align 8 dereferenceable(24) %4, ptr noundef nonnull @.str.83, ptr noundef nonnull @.str.1, ptr noundef nonnull @.str.1) #16
  br label %.loopexit

.loopexit:                                        ; preds = %14, %9, %33, %21, %7
  %.0 = phi i1 [ %8, %7 ], [ false, %33 ], [ false, %21 ], [ false, %9 ], [ true, %14 ]
  ret i1 %.0
}